target datalayout = "e-m:e-p270:32:32-p271:32:32-p272:64:64-i64:64-i128:128-f80:128-n8:16:32:64-S128"
target triple = "x86_64-pc-linux-gnu"

%struct.AVFilterContext = type { ptr, ptr, ptr, ptr, ptr, i32, ptr, ptr, i32, ptr, ptr, i32, i32, ptr, ptr, ptr, ptr, i32, ptr, i32, i32 }
%struct.TileContext = type { ptr, i32, i32, i32, i32, i32, i32, i32, i32, %struct.FFDrawContext, %struct.FFDrawColor, ptr, ptr, [4 x i8] }
%struct.FFDrawContext = type { ptr, i32, i32, [4 x i32], [4 x i8], [4 x i8], i8, i8, i32, i32, i32, [3 x [3 x double]] }
%struct.FFDrawColor = type { [4 x i8], [4 x %union.anon.2] }
%union.anon.2 = type { [4 x i32] }
%struct.AVFilterLink = type { ptr, ptr, ptr, ptr, i32, i32, i32, i32, %struct.AVRational, i32, i32, i32, %struct.AVChannelLayout, %struct.AVRational, ptr, i32, %struct.AVFilterFormatsConfig, %struct.AVFilterFormatsConfig }
%struct.AVChannelLayout = type { i32, i32, %union.anon.1, ptr }
%union.anon.1 = type { i64 }
%struct.AVRational = type { i32, i32 }
%struct.AVFilterFormatsConfig = type { ptr, ptr, ptr, ptr, ptr }
%struct.AVFrame = type { [8 x ptr], [8 x i32], ptr, i32, i32, i32, i32, i32, %struct.AVRational, i64, i64, %struct.AVRational, i32, ptr, i32, i32, [8 x ptr], ptr, i32, ptr, i32, i32, i32, i32, i32, i32, i32, i64, ptr, i32, ptr, ptr, i64, i64, i64, i64, ptr, %struct.AVChannelLayout, i64 }

; Function Attrs: nounwind uwtable
define internal void @get_tile_pos(ptr noundef %0, ptr noundef %1, ptr noundef %2, i32 noundef %3) #1 {
  %5 = alloca ptr, align 8
  %6 = alloca ptr, align 8
  %7 = alloca ptr, align 8
  %8 = alloca i32, align 4
  %9 = alloca ptr, align 8
  %10 = alloca ptr, align 8
  %11 = alloca i32, align 4
  %12 = alloca i32, align 4
  store ptr %0, ptr %5, align 8, !tbaa !4
  store ptr %1, ptr %6, align 8, !tbaa !65
  store ptr %2, ptr %7, align 8, !tbaa !65
  store i32 %3, ptr %8, align 4, !tbaa !62
  call void @llvm.lifetime.start.p0(i64 8, ptr %9) #7
  %13 = load ptr, ptr %5, align 8, !tbaa !4
  %14 = getelementptr inbounds nuw %struct.AVFilterContext, ptr %13, i32 0, i32 9
  %15 = load ptr, ptr %14, align 8, !tbaa !9
  store ptr %15, ptr %9, align 8, !tbaa !22
  call void @llvm.lifetime.start.p0(i64 8, ptr %10) #7
  %16 = load ptr, ptr %5, align 8, !tbaa !4
  %17 = getelementptr inbounds nuw %struct.AVFilterContext, ptr %16, i32 0, i32 4
  %18 = load ptr, ptr %17, align 8, !tbaa !67
  %19 = getelementptr inbounds ptr, ptr %18, i64 0
  %20 = load ptr, ptr %19, align 8, !tbaa !39
  store ptr %20, ptr %10, align 8, !tbaa !39
  call void @llvm.lifetime.start.p0(i64 4, ptr %11) #7
  %21 = load i32, ptr %8, align 4, !tbaa !62
  %22 = load ptr, ptr %9, align 8, !tbaa !22
  %23 = getelementptr inbounds nuw %struct.TileContext, ptr %22, i32 0, i32 1
  %24 = load i32, ptr %23, align 8, !tbaa !24
  %25 = urem i32 %21, %24
  store i32 %25, ptr %11, align 4, !tbaa !62
  call void @llvm.lifetime.start.p0(i64 4, ptr %12) #7
  %26 = load i32, ptr %8, align 4, !tbaa !62
  %27 = load ptr, ptr %9, align 8, !tbaa !22
  %28 = getelementptr inbounds nuw %struct.TileContext, ptr %27, i32 0, i32 1
  %29 = load i32, ptr %28, align 8, !tbaa !24
  %30 = udiv i32 %26, %29
  store i32 %30, ptr %12, align 4, !tbaa !62
  %31 = load ptr, ptr %9, align 8, !tbaa !22
  %32 = getelementptr inbounds nuw %struct.TileContext, ptr %31, i32 0, i32 3
  %33 = load i32, ptr %32, align 8, !tbaa !32
  %34 = load ptr, ptr %10, align 8, !tbaa !39
  %35 = getelementptr inbounds nuw %struct.AVFilterLink, ptr %34, i32 0, i32 6
  %36 = load i32, ptr %35, align 8, !tbaa !52
  %37 = load ptr, ptr %9, align 8, !tbaa !22
  %38 = getelementptr inbounds nuw %struct.TileContext, ptr %37, i32 0, i32 4
  %39 = load i32, ptr %38, align 4, !tbaa !31
  %40 = add i32 %36, %39
  %41 = load i32, ptr %11, align 4, !tbaa !62
  %42 = mul i32 %40, %41
  %43 = add i32 %33, %42
  %44 = load ptr, ptr %6, align 8, !tbaa !65
  store i32 %43, ptr %44, align 4, !tbaa !62
  %45 = load ptr, ptr %9, align 8, !tbaa !22
  %46 = getelementptr inbounds nuw %struct.TileContext, ptr %45, i32 0, i32 3
  %47 = load i32, ptr %46, align 8, !tbaa !32
  %48 = load ptr, ptr %10, align 8, !tbaa !39
  %49 = getelementptr inbounds nuw %struct.AVFilterLink, ptr %48, i32 0, i32 7
  %50 = load i32, ptr %49, align 4, !tbaa !53
  %51 = load ptr, ptr %9, align 8, !tbaa !22
  %52 = getelementptr inbounds nuw %struct.TileContext, ptr %51, i32 0, i32 4
  %53 = load i32, ptr %52, align 4, !tbaa !31
  %54 = add i32 %50, %53
  %55 = load i32, ptr %12, align 4, !tbaa !62
  %56 = mul i32 %54, %55
  %57 = add i32 %47, %56
  %58 = load ptr, ptr %7, align 8, !tbaa !65
  store i32 %57, ptr %58, align 4, !tbaa !62
  call void @llvm.lifetime.end.p0(i64 4, ptr %12) #7
  call void @llvm.lifetime.end.p0(i64 4, ptr %11) #7
  call void @llvm.lifetime.end.p0(i64 8, ptr %10) #7
  call void @llvm.lifetime.end.p0(i64 8, ptr %9) #7
  ret void
}

; Function Attrs: nounwind uwtable
define internal void @draw_blank_frame(ptr noundef %0, ptr noundef %1) #1 {
  %3 = alloca ptr, align 8
  %4 = alloca ptr, align 8
  %5 = alloca ptr, align 8
  %6 = alloca ptr, align 8
  %7 = alloca i32, align 4
  %8 = alloca i32, align 4
  store ptr %0, ptr %3, align 8, !tbaa !4
  store ptr %1, ptr %4, align 8, !tbaa !41
  call void @llvm.lifetime.start.p0(i64 8, ptr %5) #7
  %9 = load ptr, ptr %3, align 8, !tbaa !4
  %10 = getelementptr inbounds nuw %struct.AVFilterContext, ptr %9, i32 0, i32 9
  %11 = load ptr, ptr %10, align 8, !tbaa !9
  store ptr %11, ptr %5, align 8, !tbaa !22
  call void @llvm.lifetime.start.p0(i64 8, ptr %6) #7
  %12 = load ptr, ptr %3, align 8, !tbaa !4
  %13 = getelementptr inbounds nuw %struct.AVFilterContext, ptr %12, i32 0, i32 4
  %14 = load ptr, ptr %13, align 8, !tbaa !67
  %15 = getelementptr inbounds ptr, ptr %14, i64 0
  %16 = load ptr, ptr %15, align 8, !tbaa !39
  store ptr %16, ptr %6, align 8, !tbaa !39
  call void @llvm.lifetime.start.p0(i64 4, ptr %7) #7
  call void @llvm.lifetime.start.p0(i64 4, ptr %8) #7
  %17 = load ptr, ptr %3, align 8, !tbaa !4
  %18 = load ptr, ptr %5, align 8, !tbaa !22
  %19 = getelementptr inbounds nuw %struct.TileContext, ptr %18, i32 0, i32 7
  %20 = load i32, ptr %19, align 8, !tbaa !36
  call void @get_tile_pos(ptr noundef %17, ptr noundef %7, ptr noundef %8, i32 noundef %20)
  %21 = load ptr, ptr %5, align 8, !tbaa !22
  %22 = getelementptr inbounds nuw %struct.TileContext, ptr %21, i32 0, i32 9
  %23 = load ptr, ptr %5, align 8, !tbaa !22
  %24 = getelementptr inbounds nuw %struct.TileContext, ptr %23, i32 0, i32 10
  %25 = load ptr, ptr %4, align 8, !tbaa !41
  %26 = getelementptr inbounds nuw %struct.AVFrame, ptr %25, i32 0, i32 0
  %27 = getelementptr inbounds [8 x ptr], ptr %26, i64 0, i64 0
  %28 = load ptr, ptr %4, align 8, !tbaa !41
  %29 = getelementptr inbounds nuw %struct.AVFrame, ptr %28, i32 0, i32 1
  %30 = getelementptr inbounds [8 x i32], ptr %29, i64 0, i64 0
  %31 = load i32, ptr %7, align 4, !tbaa !62
  %32 = load i32, ptr %8, align 4, !tbaa !62
  %33 = load ptr, ptr %6, align 8, !tbaa !39
  %34 = getelementptr inbounds nuw %struct.AVFilterLink, ptr %33, i32 0, i32 6
  %35 = load i32, ptr %34, align 8, !tbaa !52
  %36 = load ptr, ptr %6, align 8, !tbaa !39
  %37 = getelementptr inbounds nuw %struct.AVFilterLink, ptr %36, i32 0, i32 7
  %38 = load i32, ptr %37, align 4, !tbaa !53
  call void @ff_fill_rectangle(ptr noundef %22, ptr noundef %24, ptr noundef %27, ptr noundef %30, i32 noundef %31, i32 noundef %32, i32 noundef %35, i32 noundef %38)
  %39 = load ptr, ptr %5, align 8, !tbaa !22
  %40 = getelementptr inbounds nuw %struct.TileContext, ptr %39, i32 0, i32 7
  %41 = load i32, ptr %40, align 8, !tbaa !36
  %42 = add i32 %41, 1
  store i32 %42, ptr %40, align 8, !tbaa !36
  call void @llvm.lifetime.end.p0(i64 4, ptr %8) #7
  call void @llvm.lifetime.end.p0(i64 4, ptr %7) #7
  call void @llvm.lifetime.end.p0(i64 8, ptr %6) #7
  call void @llvm.lifetime.end.p0(i64 8, ptr %5) #7
  ret void
}

; Function Attrs: nounwind uwtable
define internal i32 @end_last_frame(ptr noundef %0) #1 {
  %2 = alloca ptr, align 8
  %3 = alloca ptr, align 8
  %4 = alloca ptr, align 8
  %5 = alloca ptr, align 8
  %6 = alloca i32, align 4
  store ptr %0, ptr %2, align 8, !tbaa !4
  call void @llvm.lifetime.start.p0(i64 8, ptr %3) #7
  %7 = load ptr, ptr %2, align 8, !tbaa !4
  %8 = getelementptr inbounds nuw %struct.AVFilterContext, ptr %7, i32 0, i32 9
  %9 = load ptr, ptr %8, align 8, !tbaa !9
  store ptr %9, ptr %3, align 8, !tbaa !22
  call void @llvm.lifetime.start.p0(i64 8, ptr %4) #7
  %10 = load ptr, ptr %2, align 8, !tbaa !4
  %11 = getelementptr inbounds nuw %struct.AVFilterContext, ptr %10, i32 0, i32 7
  %12 = load ptr, ptr %11, align 8, !tbaa !50
  %13 = getelementptr inbounds ptr, ptr %12, i64 0
  %14 = load ptr, ptr %13, align 8, !tbaa !39
  store ptr %14, ptr %4, align 8, !tbaa !39
  call void @llvm.lifetime.start.p0(i64 8, ptr %5) #7
  %15 = load ptr, ptr %3, align 8, !tbaa !22
  %16 = getelementptr inbounds nuw %struct.TileContext, ptr %15, i32 0, i32 11
  %17 = load ptr, ptr %16, align 8, !tbaa !51
  store ptr %17, ptr %5, align 8, !tbaa !41
  call void @llvm.lifetime.start.p0(i64 4, ptr %6) #7
  br label %18

18:                                               ; preds = %26, %1
  %19 = load ptr, ptr %3, align 8, !tbaa !22
  %20 = getelementptr inbounds nuw %struct.TileContext, ptr %19, i32 0, i32 7
  %21 = load i32, ptr %20, align 8, !tbaa !36
  %22 = load ptr, ptr %3, align 8, !tbaa !22
  %23 = getelementptr inbounds nuw %struct.TileContext, ptr %22, i32 0, i32 8
  %24 = load i32, ptr %23, align 4, !tbaa !33
  %25 = icmp ult i32 %21, %24
  br i1 %25, label %26, label %29

26:                                               ; preds = %18
  %27 = load ptr, ptr %2, align 8, !tbaa !4
  %28 = load ptr, ptr %5, align 8, !tbaa !41
  call void @draw_blank_frame(ptr noundef %27, ptr noundef %28)
  br label %18, !llvm.loop !68

29:                                               ; preds = %18
  %30 = load ptr, ptr %3, align 8, !tbaa !22
  %31 = getelementptr inbounds nuw %struct.TileContext, ptr %30, i32 0, i32 5
  %32 = load i32, ptr %31, align 8, !tbaa !34
  %33 = load ptr, ptr %3, align 8, !tbaa !22
  %34 = getelementptr inbounds nuw %struct.TileContext, ptr %33, i32 0, i32 7
  store i32 %32, ptr %34, align 8, !tbaa !36
  %35 = load ptr, ptr %3, align 8, !tbaa !22
  %36 = getelementptr inbounds nuw %struct.TileContext, ptr %35, i32 0, i32 7
  %37 = load i32, ptr %36, align 8, !tbaa !36
  %38 = icmp ne i32 %37, 0
  br i1 %38, label %39, label %46

39:                                               ; preds = %29
  %40 = load ptr, ptr %3, align 8, !tbaa !22
  %41 = getelementptr inbounds nuw %struct.TileContext, ptr %40, i32 0, i32 12
  call void @av_frame_free(ptr noundef %41)
  %42 = load ptr, ptr %5, align 8, !tbaa !41
  %43 = call ptr @av_frame_clone(ptr noundef %42)
  %44 = load ptr, ptr %3, align 8, !tbaa !22
  %45 = getelementptr inbounds nuw %struct.TileContext, ptr %44, i32 0, i32 12
  store ptr %43, ptr %45, align 8, !tbaa !61
  br label %46

46:                                               ; preds = %39, %29
  %47 = load ptr, ptr %4, align 8, !tbaa !39
  %48 = load ptr, ptr %5, align 8, !tbaa !41
  %49 = call i32 @ff_filter_frame(ptr noundef %47, ptr noundef %48)
  store i32 %49, ptr %6, align 4, !tbaa !62
  %50 = load ptr, ptr %3, align 8, !tbaa !22
  %51 = getelementptr inbounds nuw %struct.TileContext, ptr %50, i32 0, i32 11
  store ptr null, ptr %51, align 8, !tbaa !51
  %52 = load i32, ptr %6, align 4, !tbaa !62
  call void @llvm.lifetime.end.p0(i64 4, ptr %6) #7
  call void @llvm.lifetime.end.p0(i64 8, ptr %5) #7
  call void @llvm.lifetime.end.p0(i64 8, ptr %4) #7
  call void @llvm.lifetime.end.p0(i64 8, ptr %3) #7
  ret i32 %52
}