; Function Attrs: nounwind uwtable
define internal fastcc i32 @end_last_frame(ptr noundef readonly captures(none) %0) unnamed_addr #1 {
  %2 = getelementptr inbounds nuw i8, ptr %0, i64 72
  %3 = load ptr, ptr %2, align 8, !tbaa !4
  %4 = getelementptr inbounds nuw i8, ptr %0, i64 56
  %5 = load ptr, ptr %4, align 8, !tbaa !44
  %6 = load ptr, ptr %5, align 8, !tbaa !45
  %7 = getelementptr inbounds nuw i8, ptr %3, i64 240
  %8 = load ptr, ptr %7, align 8, !tbaa !43
  %9 = getelementptr inbounds nuw i8, ptr %3, i64 32
  %10 = getelementptr inbounds nuw i8, ptr %3, i64 36
  %11 = load i32, ptr %9, align 8, !tbaa !32
  %12 = load i32, ptr %10, align 4, !tbaa !29
  %13 = icmp ult i32 %11, %12
  br i1 %13, label %.lr.ph, label %._crit_edge

.lr.ph:                                           ; preds = %1
  %14 = getelementptr i8, ptr %0, i64 32
  %15 = getelementptr inbounds nuw i8, ptr %8, i64 64
  br label %16

16:                                               ; preds = %.lr.ph, %16
  %.val = load ptr, ptr %14, align 8, !tbaa !57
  %.val16 = load ptr, ptr %2, align 8, !tbaa !4
  %.val.val = load ptr, ptr %.val, align 8, !tbaa !45
  %17 = getelementptr i8, ptr %.val.val, i64 40
  %.val.val.val = load i32, ptr %17, align 8, !tbaa !47
  %18 = getelementptr i8, ptr %.val.val, i64 44
  %.val.val.val17 = load i32, ptr %18, align 4, !tbaa !48
  %19 = getelementptr inbounds nuw i8, ptr %.val16, i64 32
  %20 = load i32, ptr %19, align 8, !tbaa !32
  %21 = getelementptr inbounds nuw i8, ptr %.val16, i64 8
  %22 = load i32, ptr %21, align 8, !tbaa !20
  %23 = urem i32 %20, %22
  %24 = udiv i32 %20, %22
  %25 = getelementptr inbounds nuw i8, ptr %.val16, i64 16
  %26 = load i32, ptr %25, align 8, !tbaa !28
  %27 = getelementptr inbounds nuw i8, ptr %.val16, i64 20
  %28 = load i32, ptr %27, align 4, !tbaa !27
  %29 = add i32 %28, %.val.val.val
  %30 = mul i32 %29, %23
  %31 = add i32 %30, %26
  %32 = add i32 %28, %.val.val.val17
  %33 = mul i32 %32, %24
  %34 = add i32 %33, %26
  %35 = getelementptr inbounds nuw i8, ptr %.val16, i64 40
  %36 = getelementptr inbounds nuw i8, ptr %.val16, i64 168
  tail call void @ff_fill_rectangle(ptr noundef nonnull %35, ptr noundef nonnull %36, ptr noundef %8, ptr noundef nonnull %15, i32 noundef %31, i32 noundef %34, i32 noundef %.val.val.val, i32 noundef %.val.val.val17) #5
  %37 = load i32, ptr %19, align 8, !tbaa !32
  %38 = add i32 %37, 1
  store i32 %38, ptr %19, align 8, !tbaa !32
  %39 = load i32, ptr %9, align 8, !tbaa !32
  %40 = load i32, ptr %10, align 4, !tbaa !29
  %41 = icmp ult i32 %39, %40
  br i1 %41, label %16, label %._crit_edge, !llvm.loop !60

._crit_edge:                                      ; preds = %16, %1
  %42 = getelementptr inbounds nuw i8, ptr %3, i64 24
  %43 = load i32, ptr %42, align 8, !tbaa !30
  store i32 %43, ptr %9, align 8, !tbaa !32
  %.not = icmp eq i32 %43, 0
  br i1 %.not, label %47, label %44

44:                                               ; preds = %._crit_edge
  %45 = getelementptr inbounds nuw i8, ptr %3, i64 248
  tail call void @av_frame_free(ptr noundef nonnull %45) #5
  %46 = tail call ptr @av_frame_clone(ptr noundef %8) #5
  store ptr %46, ptr %45, align 8, !tbaa !56
  br label %47

47:                                               ; preds = %44, %._crit_edge
  %48 = tail call i32 @ff_filter_frame(ptr noundef %6, ptr noundef %8) #5
  store ptr null, ptr %7, align 8, !tbaa !43
  ret i32 %48
}